target datalayout = "e-m:e-p270:32:32-p271:32:32-p272:64:64-i64:64-i128:128-f80:128-n8:16:32:64-S128"
target triple = "x86_64-pc-linux-gnu"

%"class.llvm::TargetRegisterClass" = type { ptr, ptr, ptr, %"struct.llvm::LaneBitmask", i8, i8, i8, i8, i8, ptr, ptr }
%"struct.llvm::LaneBitmask" = type { i64 }
%"class.llvm::Register" = type { i32 }
%"class.llvm::MVT" = type { i16 }

@_ZN4llvm7AArch6413GPR64RegClassE = external global %"class.llvm::TargetRegisterClass", align 8
@_ZN4llvm7AArch6413GPR32RegClassE = external global %"class.llvm::TargetRegisterClass", align 8

; Function Attrs: mustprogress nounwind uwtable
define linkonce_odr hidden noundef i32 @_ZNK4llvm8RegistercvjEv(ptr noundef nonnull align 4 dereferenceable(4) %0) #0 comdat align 2 {
  %2 = alloca ptr, align 8
  store ptr %0, ptr %2, align 8
  %3 = load ptr, ptr %2, align 8
  %4 = getelementptr inbounds nuw %"class.llvm::Register", ptr %3, i32 0, i32 0
  %5 = load i32, ptr %4, align 4
  ret i32 %5
}

; Function Attrs: mustprogress nounwind uwtable
define linkonce_odr hidden noundef zeroext i1 @_ZNK4llvm3MVTeqERKS0_(ptr noundef nonnull align 2 dereferenceable(2) %0, ptr noundef nonnull align 2 dereferenceable(2) %1) #0 comdat align 2 {
  %3 = alloca ptr, align 8
  %4 = alloca ptr, align 8
  store ptr %0, ptr %3, align 8
  store ptr %1, ptr %4, align 8
  %5 = load ptr, ptr %3, align 8
  %6 = getelementptr inbounds nuw %"class.llvm::MVT", ptr %5, i32 0, i32 0
  %7 = load i16, ptr %6, align 2
  %8 = zext i16 %7 to i32
  %9 = load ptr, ptr %4, align 8
  %10 = getelementptr inbounds nuw %"class.llvm::MVT", ptr %9, i32 0, i32 0
  %11 = load i16, ptr %10, align 2
  %12 = zext i16 %11 to i32
  %13 = icmp eq i32 %8, %12
  ret i1 %13
}

; Function Attrs: mustprogress nounwind uwtable
define linkonce_odr hidden void @_ZN4llvm3MVTC2ENS0_15SimpleValueTypeE(ptr noundef nonnull align 2 dereferenceable(2) %0, i16 noundef zeroext %1) unnamed_addr #0 comdat align 2 {
  %3 = alloca ptr, align 8
  %4 = alloca i16, align 2
  store ptr %0, ptr %3, align 8
  store i16 %1, ptr %4, align 2
  %5 = load ptr, ptr %3, align 8
  %6 = getelementptr inbounds nuw %"class.llvm::MVT", ptr %5, i32 0, i32 0
  %7 = load i16, ptr %4, align 2
  store i16 %7, ptr %6, align 2
  ret void
}

; Function Attrs: mustprogress nounwind uwtable
define internal noundef i32 @_ZN12_GLOBAL__N_115AArch64FastISel10emitMul_rrEN4llvm3MVTEjj(ptr noundef nonnull align 8 dereferenceable(192) %0, i16 %1, i32 noundef %2, i32 noundef %3) #0 align 2 {
  %5 = alloca i32, align 4
  %6 = alloca %"class.llvm::MVT", align 2
  %7 = alloca ptr, align 8
  %8 = alloca i32, align 4
  %9 = alloca i32, align 4
  %10 = alloca i32, align 4
  %11 = alloca i32, align 4
  %12 = alloca %"class.llvm::MVT", align 2
  %13 = alloca ptr, align 8
  %14 = alloca %"class.llvm::MVT", align 2
  %15 = alloca %"class.llvm::Register", align 4
  %16 = getelementptr inbounds nuw %"class.llvm::MVT", ptr %6, i32 0, i32 0
  store i16 %1, ptr %16, align 2
  store ptr %0, ptr %7, align 8
  store i32 %2, ptr %8, align 4
  store i32 %3, ptr %9, align 4
  %17 = load ptr, ptr %7, align 8
  %18 = getelementptr inbounds nuw %"class.llvm::MVT", ptr %6, i32 0, i32 0
  %19 = load i16, ptr %18, align 2
  %20 = zext i16 %19 to i32
  switch i32 %20, label %21 [
    i32 5, label %22
    i32 6, label %22
    i32 7, label %22
    i32 8, label %23
  ]

21:                                               ; preds = %4
  store i32 0, ptr %5, align 4
  br label %35

22:                                               ; preds = %4, %4, %4
  call void @_ZN4llvm3MVTC2ENS0_15SimpleValueTypeE(ptr noundef nonnull align 2 dereferenceable(2) %12, i16 noundef zeroext 7)
  call void @llvm.memcpy.p0.p0.i64(ptr align 2 %6, ptr align 2 %12, i64 2, i1 false)
  store i32 4653, ptr %10, align 4
  store i32 11, ptr %11, align 4
  br label %24

23:                                               ; preds = %4
  store i32 4654, ptr %10, align 4
  store i32 12, ptr %11, align 4
  br label %24

24:                                               ; preds = %23, %22
  call void @_ZN4llvm3MVTC2ENS0_15SimpleValueTypeE(ptr noundef nonnull align 2 dereferenceable(2) %14, i16 noundef zeroext 8)
  %25 = call noundef zeroext i1 @_ZNK4llvm3MVTeqERKS0_(ptr noundef nonnull align 2 dereferenceable(2) %6, ptr noundef nonnull align 2 dereferenceable(2) %14)
  %26 = select i1 %25, ptr @_ZN4llvm7AArch6413GPR64RegClassE, ptr @_ZN4llvm7AArch6413GPR32RegClassE
  store ptr %26, ptr %13, align 8
  %27 = load i32, ptr %10, align 4
  %28 = load ptr, ptr %13, align 8
  %29 = load i32, ptr %8, align 4
  %30 = load i32, ptr %9, align 4
  %31 = load i32, ptr %11, align 4
  %32 = call i32 @_ZN4llvm8FastISel16fastEmitInst_rrrEjPKNS_19TargetRegisterClassEjjj(ptr noundef nonnull align 8 dereferenceable(176) %17, i32 noundef %27, ptr noundef %28, i32 noundef %29, i32 noundef %30, i32 noundef %31)
  %33 = getelementptr inbounds nuw %"class.llvm::Register", ptr %15, i32 0, i32 0
  store i32 %32, ptr %33, align 4
  %34 = call noundef i32 @_ZNK4llvm8RegistercvjEv(ptr noundef nonnull align 4 dereferenceable(4) %15)
  store i32 %34, ptr %5, align 4
  br label %35

35:                                               ; preds = %24, %21
  %36 = load i32, ptr %5, align 4
  ret i32 %36
}