; Function Attrs: mustprogress nounwind uwtable
define internal fastcc noundef i32 @_ZN12_GLOBAL__N_115AArch64FastISel10emitMul_rrEN4llvm3MVTEjj(ptr noundef nonnull align 8 dereferenceable(192) %0, i16 %1, i32 noundef %2, i32 noundef %3) unnamed_addr #0 align 2 {
  %switch.tableidx = add i16 %1, -5
  %5 = icmp ult i16 %switch.tableidx, 4
  br i1 %5, label %switch.lookup, label %10

switch.lookup:                                    ; preds = %4
  %6 = zext nneg i16 %switch.tableidx to i64
  %switch.gep = getelementptr inbounds nuw [4 x i32], ptr @switch.table._ZN12_GLOBAL__N_115AArch64FastISel10emitMul_rrEN4llvm3MVTEjj, i64 0, i64 %6
  %switch.load = load i32, ptr %switch.gep, align 4
  %7 = zext nneg i16 %switch.tableidx to i64
  %switch.gep18 = getelementptr inbounds nuw [4 x i32], ptr @switch.table._ZN12_GLOBAL__N_115AArch64FastISel10emitMul_rrEN4llvm3MVTEjj.19, i64 0, i64 %7
  %switch.load19 = load i32, ptr %switch.gep18, align 4
  %8 = zext nneg i16 %switch.tableidx to i64
  %switch.gep20 = getelementptr inbounds nuw [4 x ptr], ptr @switch.table._ZN12_GLOBAL__N_115AArch64FastISel10emitMul_rrEN4llvm3MVTEjj.20, i64 0, i64 %8
  %switch.load21 = load ptr, ptr %switch.gep20, align 8
  %9 = tail call i32 @_ZN4llvm8FastISel16fastEmitInst_rrrEjPKNS_19TargetRegisterClassEjjj(ptr noundef nonnull align 8 dereferenceable(176) %0, i32 noundef %switch.load19, ptr noundef nonnull %switch.load21, i32 noundef %2, i32 noundef %3, i32 noundef %switch.load) #21
  br label %10

10:                                               ; preds = %4, %switch.lookup
  %.0 = phi i32 [ %9, %switch.lookup ], [ 0, %4 ]
  ret i32 %.0
}